#include <math.h>
#include <stdio.h>
#include <stdlib.h>
#include <string.h>

int main()
{
  int a,n[100000],i,p=0;
  scanf("%d",&a);
  n[0]=a;
  if(a==1)
  {
    printf("End");
   }
  else
  {
    for(i=0;n[i]!=1;i++)
    {
      if(n[i]%2!=0)
      {
        n[i+1]=n[i]*3+1;
        if(p==0)
        {
          printf("%d*3+1=%d",n[i],n[i+1]);
          p++;
        }
        else
        {
          printf("\n%d*3+1=%d",n[i],n[i+1]);
        }
      }
      else
      {
        n[i+1]=n[i]/2;
        if(p==0)
        {
          printf("%d/2=%d",n[i],n[i+1]);
          p++;
        }
        else
        {
          printf("\n%d/2=%d",n[i],n[i+1]);
        }
      } 
    }
    printf("\nEnd");
  }
  return 0;
}