; ModuleID = '34/1863.c'
source_filename = "34/1863.c"
target datalayout = "e-m:e-p270:32:32-p271:32:32-p272:64:64-i64:64-f80:128-n8:16:32:64-S128"
target triple = "x86_64-pc-linux-gnu"

@.str = private unnamed_addr constant [3 x i8] c"%d\00", align 1
@.str.1 = private unnamed_addr constant [4 x i8] c"End\00", align 1
@.str.2 = private unnamed_addr constant [10 x i8] c"%d*3+1=%d\00", align 1
@.str.3 = private unnamed_addr constant [11 x i8] c"\0A%d*3+1=%d\00", align 1
@.str.4 = private unnamed_addr constant [8 x i8] c"%d/2=%d\00", align 1
@.str.5 = private unnamed_addr constant [9 x i8] c"\0A%d/2=%d\00", align 1
@.str.6 = private unnamed_addr constant [5 x i8] c"\0AEnd\00", align 1

; Function Attrs: noinline nounwind uwtable
define dso_local i32 @main() #0 {
  %1 = alloca i32, align 4
  %2 = alloca i32, align 4
  %3 = alloca [100000 x i32], align 16
  %4 = alloca i32, align 4
  %5 = alloca i32, align 4
  store i32 0, i32* %1, align 4
  store i32 0, i32* %5, align 4
  %6 = call i32 (i8*, ...) @__isoc99_scanf(i8* getelementptr inbounds ([3 x i8], [3 x i8]* @.str, i64 0, i64 0), i32* %2)
  %7 = load i32, i32* %2, align 4
  %8 = getelementptr inbounds [100000 x i32], [100000 x i32]* %3, i64 0, i64 0
  store i32 %7, i32* %8, align 16
  %9 = load i32, i32* %2, align 4
  %10 = icmp eq i32 %9, 1
  br i1 %10, label %11, label %13

11:                                               ; preds = %0
  %12 = call i32 (i8*, ...) @printf(i8* getelementptr inbounds ([4 x i8], [4 x i8]* @.str.1, i64 0, i64 0))
  br label %108

13:                                               ; preds = %0
  store i32 0, i32* %4, align 4
  br label %14

14:                                               ; preds = %103, %13
  %15 = load i32, i32* %4, align 4
  %16 = sext i32 %15 to i64
  %17 = getelementptr inbounds [100000 x i32], [100000 x i32]* %3, i64 0, i64 %16
  %18 = load i32, i32* %17, align 4
  %19 = icmp ne i32 %18, 1
  br i1 %19, label %20, label %106

20:                                               ; preds = %14
  %21 = load i32, i32* %4, align 4
  %22 = sext i32 %21 to i64
  %23 = getelementptr inbounds [100000 x i32], [100000 x i32]* %3, i64 0, i64 %22
  %24 = load i32, i32* %23, align 4
  %25 = srem i32 %24, 2
  %26 = icmp ne i32 %25, 0
  br i1 %26, label %27, label %65

27:                                               ; preds = %20
  %28 = load i32, i32* %4, align 4
  %29 = sext i32 %28 to i64
  %30 = getelementptr inbounds [100000 x i32], [100000 x i32]* %3, i64 0, i64 %29
  %31 = load i32, i32* %30, align 4
  %32 = mul nsw i32 %31, 3
  %33 = add nsw i32 %32, 1
  %34 = load i32, i32* %4, align 4
  %35 = add nsw i32 %34, 1
  %36 = sext i32 %35 to i64
  %37 = getelementptr inbounds [100000 x i32], [100000 x i32]* %3, i64 0, i64 %36
  store i32 %33, i32* %37, align 4
  %38 = load i32, i32* %5, align 4
  %39 = icmp eq i32 %38, 0
  br i1 %39, label %40, label %53

40:                                               ; preds = %27
  %41 = load i32, i32* %4, align 4
  %42 = sext i32 %41 to i64
  %43 = getelementptr inbounds [100000 x i32], [100000 x i32]* %3, i64 0, i64 %42
  %44 = load i32, i32* %43, align 4
  %45 = load i32, i32* %4, align 4
  %46 = add nsw i32 %45, 1
  %47 = sext i32 %46 to i64
  %48 = getelementptr inbounds [100000 x i32], [100000 x i32]* %3, i64 0, i64 %47
  %49 = load i32, i32* %48, align 4
  %50 = call i32 (i8*, ...) @printf(i8* getelementptr inbounds ([10 x i8], [10 x i8]* @.str.2, i64 0, i64 0), i32 %44, i32 %49)
  %51 = load i32, i32* %5, align 4
  %52 = add nsw i32 %51, 1
  store i32 %52, i32* %5, align 4
  br label %64

53:                                               ; preds = %27
  %54 = load i32, i32* %4, align 4
  %55 = sext i32 %54 to i64
  %56 = getelementptr inbounds [100000 x i32], [100000 x i32]* %3, i64 0, i64 %55
  %57 = load i32, i32* %56, align 4
  %58 = load i32, i32* %4, align 4
  %59 = add nsw i32 %58, 1
  %60 = sext i32 %59 to i64
  %61 = getelementptr inbounds [100000 x i32], [100000 x i32]* %3, i64 0, i64 %60
  %62 = load i32, i32* %61, align 4
  %63 = call i32 (i8*, ...) @printf(i8* getelementptr inbounds ([11 x i8], [11 x i8]* @.str.3, i64 0, i64 0), i32 %57, i32 %62)
  br label %64

64:                                               ; preds = %53, %40
  br label %102

65:                                               ; preds = %20
  %66 = load i32, i32* %4, align 4
  %67 = sext i32 %66 to i64
  %68 = getelementptr inbounds [100000 x i32], [100000 x i32]* %3, i64 0, i64 %67
  %69 = load i32, i32* %68, align 4
  %70 = sdiv i32 %69, 2
  %71 = load i32, i32* %4, align 4
  %72 = add nsw i32 %71, 1
  %73 = sext i32 %72 to i64
  %74 = getelementptr inbounds [100000 x i32], [100000 x i32]* %3, i64 0, i64 %73
  store i32 %70, i32* %74, align 4
  %75 = load i32, i32* %5, align 4
  %76 = icmp eq i32 %75, 0
  br i1 %76, label %77, label %90

77:                                               ; preds = %65
  %78 = load i32, i32* %4, align 4
  %79 = sext i32 %78 to i64
  %80 = getelementptr inbounds [100000 x i32], [100000 x i32]* %3, i64 0, i64 %79
  %81 = load i32, i32* %80, align 4
  %82 = load i32, i32* %4, align 4
  %83 = add nsw i32 %82, 1
  %84 = sext i32 %83 to i64
  %85 = getelementptr inbounds [100000 x i32], [100000 x i32]* %3, i64 0, i64 %84
  %86 = load i32, i32* %85, align 4
  %87 = call i32 (i8*, ...) @printf(i8* getelementptr inbounds ([8 x i8], [8 x i8]* @.str.4, i64 0, i64 0), i32 %81, i32 %86)
  %88 = load i32, i32* %5, align 4
  %89 = add nsw i32 %88, 1
  store i32 %89, i32* %5, align 4
  br label %101

90:                                               ; preds = %65
  %91 = load i32, i32* %4, align 4
  %92 = sext i32 %91 to i64
  %93 = getelementptr inbounds [100000 x i32], [100000 x i32]* %3, i64 0, i64 %92
  %94 = load i32, i32* %93, align 4
  %95 = load i32, i32* %4, align 4
  %96 = add nsw i32 %95, 1
  %97 = sext i32 %96 to i64
  %98 = getelementptr inbounds [100000 x i32], [100000 x i32]* %3, i64 0, i64 %97
  %99 = load i32, i32* %98, align 4
  %100 = call i32 (i8*, ...) @printf(i8* getelementptr inbounds ([9 x i8], [9 x i8]* @.str.5, i64 0, i64 0), i32 %94, i32 %99)
  br label %101

101:                                              ; preds = %90, %77
  br label %102

102:                                              ; preds = %101, %64
  br label %103

103:                                              ; preds = %102
  %104 = load i32, i32* %4, align 4
  %105 = add nsw i32 %104, 1
  store i32 %105, i32* %4, align 4
  br label %14

106:                                              ; preds = %14
  %107 = call i32 (i8*, ...) @printf(i8* getelementptr inbounds ([5 x i8], [5 x i8]* @.str.6, i64 0, i64 0))
  br label %108

108:                                              ; preds = %106, %11
  ret i32 0
}

declare dso_local i32 @__isoc99_scanf(i8*, ...) #1

declare dso_local i32 @printf(i8*, ...) #1


!llvm.module.flags = !{!0}
!llvm.ident = !{!1}

!0 = !{i32 1, !"wchar_size", i32 4}
!1 = !{!"clang version 10.0.0-4ubuntu1 "}
